target datalayout = "e-m:e-p270:32:32-p271:32:32-p272:64:64-i64:64-i128:128-f80:128-n8:16:32:64-S128"
target triple = "x86_64-pc-linux-gnu"

%"class.pbrt::RGBToSpectrumTable" = type { ptr, ptr }
%"class.pstd::pmr::polymorphic_allocator" = type { ptr }

@_ZN4pbrt18RGBToSpectrumTable4sRGBE = dso_local global ptr null, align 8
@_ZN4pbrt18RGBToSpectrumTable6DCI_P3E = dso_local global ptr null, align 8
@_ZN4pbrt18RGBToSpectrumTable7Rec2020E = dso_local global ptr null, align 8
@_ZN4pbrt18RGBToSpectrumTable10ACES2065_1E = dso_local global ptr null, align 8
@_ZN4pbrt25sRGBToSpectrumTable_ScaleE = external constant [64 x float], align 16
@_ZN4pbrt24sRGBToSpectrumTable_DataE = external constant [3 x [64 x [64 x [64 x [3 x float]]]]], align 16
@_ZN4pbrt27DCI_P3ToSpectrumTable_ScaleE = external constant [64 x float], align 16
@_ZN4pbrt26DCI_P3ToSpectrumTable_DataE = external constant [3 x [64 x [64 x [64 x [3 x float]]]]], align 16
@_ZN4pbrt28REC2020ToSpectrumTable_ScaleE = external constant [64 x float], align 16
@_ZN4pbrt27REC2020ToSpectrumTable_DataE = external constant [3 x [64 x [64 x [64 x [3 x float]]]]], align 16
@_ZN4pbrt31ACES2065_1ToSpectrumTable_ScaleE = external constant [64 x float], align 16
@_ZN4pbrt30ACES2065_1ToSpectrumTable_DataE = external constant [3 x [64 x [64 x [64 x [3 x float]]]]], align 16

; Function Attrs: mustprogress uwtable
define linkonce_odr dso_local noundef ptr @_ZN4pstd3pmr15memory_resource8allocateEmm(ptr noundef nonnull align 8 dereferenceable(8) %0, i64 noundef %1, i64 noundef %2) #1 comdat align 2 {
  %4 = alloca ptr, align 8
  %5 = alloca ptr, align 8
  %6 = alloca i64, align 8
  %7 = alloca i64, align 8
  store ptr %0, ptr %5, align 8, !tbaa !239
  store i64 %1, ptr %6, align 8, !tbaa !39
  store i64 %2, ptr %7, align 8, !tbaa !39
  %8 = load ptr, ptr %5, align 8
  %9 = load i64, ptr %6, align 8, !tbaa !39
  %10 = icmp eq i64 %9, 0
  br i1 %10, label %11, label %12

11:                                               ; preds = %3
  store ptr null, ptr %4, align 8
  br label %19

12:                                               ; preds = %3
  %13 = load i64, ptr %6, align 8, !tbaa !39
  %14 = load i64, ptr %7, align 8, !tbaa !39
  %15 = load ptr, ptr %8, align 8, !tbaa !180
  %16 = getelementptr inbounds ptr, ptr %15, i64 2
  %17 = load ptr, ptr %16, align 8
  %18 = call noundef ptr %17(ptr noundef nonnull align 8 dereferenceable(8) %8, i64 noundef %13, i64 noundef %14)
  store ptr %18, ptr %4, align 8
  br label %19

19:                                               ; preds = %12, %11
  %20 = load ptr, ptr %4, align 8
  ret ptr %20
}

; Function Attrs: mustprogress nounwind uwtable
define linkonce_odr dso_local noundef ptr @_ZNK4pstd3pmr21polymorphic_allocatorISt4byteE8resourceEv(ptr noundef nonnull align 8 dereferenceable(8) %0) #6 comdat align 2 {
  %2 = alloca ptr, align 8
  store ptr %0, ptr %2, align 8, !tbaa !55
  %3 = load ptr, ptr %2, align 8
  %4 = getelementptr inbounds nuw %"class.pstd::pmr::polymorphic_allocator", ptr %3, i32 0, i32 0
  %5 = load ptr, ptr %4, align 8, !tbaa !236
  ret ptr %5
}

; Function Attrs: mustprogress nounwind uwtable
define linkonce_odr dso_local void @_ZN4pbrt18RGBToSpectrumTableC2EPKfPA3_A64_A64_A64_A3_S1_(ptr noundef nonnull align 8 dereferenceable(16) %0, ptr noundef %1, ptr noundef %2) unnamed_addr #6 comdat align 2 {
  %4 = alloca ptr, align 8
  %5 = alloca ptr, align 8
  %6 = alloca ptr, align 8
  store ptr %0, ptr %4, align 8, !tbaa !21
  store ptr %1, ptr %5, align 8, !tbaa !17
  store ptr %2, ptr %6, align 8, !tbaa !17
  %7 = load ptr, ptr %4, align 8
  %8 = getelementptr inbounds nuw %"class.pbrt::RGBToSpectrumTable", ptr %7, i32 0, i32 0
  %9 = load ptr, ptr %5, align 8, !tbaa !17
  store ptr %9, ptr %8, align 8, !tbaa !27
  %10 = getelementptr inbounds nuw %"class.pbrt::RGBToSpectrumTable", ptr %7, i32 0, i32 1
  %11 = load ptr, ptr %6, align 8, !tbaa !17
  store ptr %11, ptr %10, align 8, !tbaa !49
  ret void
}

; Function Attrs: mustprogress uwtable
define linkonce_odr dso_local noundef ptr @_ZN4pstd3pmr21polymorphic_allocatorISt4byteE14allocate_bytesEmm(ptr noundef nonnull align 8 dereferenceable(8) %0, i64 noundef %1, i64 noundef %2) #1 comdat align 2 {
  %4 = alloca ptr, align 8
  %5 = alloca i64, align 8
  %6 = alloca i64, align 8
  store ptr %0, ptr %4, align 8, !tbaa !55
  store i64 %1, ptr %5, align 8, !tbaa !39
  store i64 %2, ptr %6, align 8, !tbaa !39
  %7 = load ptr, ptr %4, align 8
  %8 = call noundef ptr @_ZNK4pstd3pmr21polymorphic_allocatorISt4byteE8resourceEv(ptr noundef nonnull align 8 dereferenceable(8) %7)
  %9 = load i64, ptr %5, align 8, !tbaa !39
  %10 = load i64, ptr %6, align 8, !tbaa !39
  %11 = call noundef ptr @_ZN4pstd3pmr15memory_resource8allocateEmm(ptr noundef nonnull align 8 dereferenceable(8) %8, i64 noundef %9, i64 noundef %10)
  ret ptr %11
}

; Function Attrs: mustprogress uwtable
define linkonce_odr dso_local void @_ZN4pstd3pmr21polymorphic_allocatorISt4byteE9constructIN4pbrt18RGBToSpectrumTableEJRA64_KfPA3_A64_A64_A64_A3_S7_EEEvPT_DpOT0_(ptr noundef nonnull align 8 dereferenceable(8) %0, ptr noundef %1, ptr noundef nonnull align 4 dereferenceable(256) %2, ptr noundef nonnull align 8 dereferenceable(8) %3) #1 comdat align 2 {
  %5 = alloca ptr, align 8
  %6 = alloca ptr, align 8
  %7 = alloca ptr, align 8
  %8 = alloca ptr, align 8
  store ptr %0, ptr %5, align 8, !tbaa !55
  store ptr %1, ptr %6, align 8, !tbaa !21
  store ptr %2, ptr %7, align 8, !tbaa !17
  store ptr %3, ptr %8, align 8, !tbaa !57
  %9 = load ptr, ptr %6, align 8, !tbaa !21
  %10 = load ptr, ptr %7, align 8, !tbaa !17
  %11 = getelementptr inbounds [64 x float], ptr %10, i64 0, i64 0
  %12 = load ptr, ptr %8, align 8, !tbaa !57
  %13 = load ptr, ptr %12, align 8, !tbaa !17
  call void @_ZN4pbrt18RGBToSpectrumTableC2EPKfPA3_A64_A64_A64_A3_S1_(ptr noundef nonnull align 8 dereferenceable(16) %9, ptr noundef %11, ptr noundef %13)
  ret void
}

; Function Attrs: mustprogress uwtable
define linkonce_odr dso_local noundef ptr @_ZN4pstd3pmr21polymorphic_allocatorISt4byteE15allocate_objectIN4pbrt18RGBToSpectrumTableEEEPT_m(ptr noundef nonnull align 8 dereferenceable(8) %0, i64 noundef %1) #1 comdat align 2 {
  %3 = alloca ptr, align 8
  %4 = alloca i64, align 8
  store ptr %0, ptr %3, align 8, !tbaa !55
  store i64 %1, ptr %4, align 8, !tbaa !39
  %5 = load ptr, ptr %3, align 8
  %6 = load i64, ptr %4, align 8, !tbaa !39
  %7 = mul i64 %6, 16
  %8 = call noundef ptr @_ZN4pstd3pmr21polymorphic_allocatorISt4byteE14allocate_bytesEmm(ptr noundef nonnull align 8 dereferenceable(8) %5, i64 noundef %7, i64 noundef 8)
  ret ptr %8
}

; Function Attrs: mustprogress uwtable
define linkonce_odr dso_local noundef ptr @_ZN4pstd3pmr21polymorphic_allocatorISt4byteE10new_objectIN4pbrt18RGBToSpectrumTableEJRA64_KfPA3_A64_A64_A64_A3_S7_EEEPT_DpOT0_(ptr noundef nonnull align 8 dereferenceable(8) %0, ptr noundef nonnull align 4 dereferenceable(256) %1, ptr noundef nonnull align 8 dereferenceable(8) %2) #1 comdat align 2 {
  %4 = alloca ptr, align 8
  %5 = alloca ptr, align 8
  %6 = alloca ptr, align 8
  %7 = alloca ptr, align 8
  store ptr %0, ptr %4, align 8, !tbaa !55
  store ptr %1, ptr %5, align 8, !tbaa !17
  store ptr %2, ptr %6, align 8, !tbaa !57
  %8 = load ptr, ptr %4, align 8
  call void @llvm.lifetime.start.p0(i64 8, ptr %7) #9
  %9 = call noundef ptr @_ZN4pstd3pmr21polymorphic_allocatorISt4byteE15allocate_objectIN4pbrt18RGBToSpectrumTableEEEPT_m(ptr noundef nonnull align 8 dereferenceable(8) %8, i64 noundef 1)
  store ptr %9, ptr %7, align 8, !tbaa !21
  %10 = load ptr, ptr %7, align 8, !tbaa !21
  %11 = load ptr, ptr %5, align 8, !tbaa !17
  %12 = load ptr, ptr %6, align 8, !tbaa !57
  call void @_ZN4pstd3pmr21polymorphic_allocatorISt4byteE9constructIN4pbrt18RGBToSpectrumTableEJRA64_KfPA3_A64_A64_A64_A3_S7_EEEvPT_DpOT0_(ptr noundef nonnull align 8 dereferenceable(8) %8, ptr noundef %10, ptr noundef nonnull align 4 dereferenceable(256) %11, ptr noundef nonnull align 8 dereferenceable(8) %12)
  %13 = load ptr, ptr %7, align 8, !tbaa !21
  call void @llvm.lifetime.end.p0(i64 8, ptr %7) #9
  ret ptr %13
}

; Function Attrs: mustprogress uwtable
define dso_local void @_ZN4pbrt18RGBToSpectrumTable4InitEN4pstd3pmr21polymorphic_allocatorISt4byteEE(ptr %0) #1 align 2 {
  %2 = alloca %"class.pstd::pmr::polymorphic_allocator", align 8
  %3 = alloca ptr, align 8
  %4 = alloca ptr, align 8
  %5 = alloca ptr, align 8
  %6 = alloca ptr, align 8
  %7 = getelementptr inbounds nuw %"class.pstd::pmr::polymorphic_allocator", ptr %2, i32 0, i32 0
  store ptr %0, ptr %7, align 8
  call void @llvm.lifetime.start.p0(i64 8, ptr %3) #9
  store ptr @_ZN4pbrt24sRGBToSpectrumTable_DataE, ptr %3, align 8, !tbaa !17
  %8 = call noundef ptr @_ZN4pstd3pmr21polymorphic_allocatorISt4byteE10new_objectIN4pbrt18RGBToSpectrumTableEJRA64_KfPA3_A64_A64_A64_A3_S7_EEEPT_DpOT0_(ptr noundef nonnull align 8 dereferenceable(8) %2, ptr noundef nonnull align 4 dereferenceable(256) @_ZN4pbrt25sRGBToSpectrumTable_ScaleE, ptr noundef nonnull align 8 dereferenceable(8) %3)
  store ptr %8, ptr @_ZN4pbrt18RGBToSpectrumTable4sRGBE, align 8, !tbaa !21
  call void @llvm.lifetime.end.p0(i64 8, ptr %3) #9
  call void @llvm.lifetime.start.p0(i64 8, ptr %4) #9
  store ptr @_ZN4pbrt26DCI_P3ToSpectrumTable_DataE, ptr %4, align 8, !tbaa !17
  %9 = call noundef ptr @_ZN4pstd3pmr21polymorphic_allocatorISt4byteE10new_objectIN4pbrt18RGBToSpectrumTableEJRA64_KfPA3_A64_A64_A64_A3_S7_EEEPT_DpOT0_(ptr noundef nonnull align 8 dereferenceable(8) %2, ptr noundef nonnull align 4 dereferenceable(256) @_ZN4pbrt27DCI_P3ToSpectrumTable_ScaleE, ptr noundef nonnull align 8 dereferenceable(8) %4)
  store ptr %9, ptr @_ZN4pbrt18RGBToSpectrumTable6DCI_P3E, align 8, !tbaa !21
  call void @llvm.lifetime.end.p0(i64 8, ptr %4) #9
  call void @llvm.lifetime.start.p0(i64 8, ptr %5) #9
  store ptr @_ZN4pbrt27REC2020ToSpectrumTable_DataE, ptr %5, align 8, !tbaa !17
  %10 = call noundef ptr @_ZN4pstd3pmr21polymorphic_allocatorISt4byteE10new_objectIN4pbrt18RGBToSpectrumTableEJRA64_KfPA3_A64_A64_A64_A3_S7_EEEPT_DpOT0_(ptr noundef nonnull align 8 dereferenceable(8) %2, ptr noundef nonnull align 4 dereferenceable(256) @_ZN4pbrt28REC2020ToSpectrumTable_ScaleE, ptr noundef nonnull align 8 dereferenceable(8) %5)
  store ptr %10, ptr @_ZN4pbrt18RGBToSpectrumTable7Rec2020E, align 8, !tbaa !21
  call void @llvm.lifetime.end.p0(i64 8, ptr %5) #9
  call void @llvm.lifetime.start.p0(i64 8, ptr %6) #9
  store ptr @_ZN4pbrt30ACES2065_1ToSpectrumTable_DataE, ptr %6, align 8, !tbaa !17
  %11 = call noundef ptr @_ZN4pstd3pmr21polymorphic_allocatorISt4byteE10new_objectIN4pbrt18RGBToSpectrumTableEJRA64_KfPA3_A64_A64_A64_A3_S7_EEEPT_DpOT0_(ptr noundef nonnull align 8 dereferenceable(8) %2, ptr noundef nonnull align 4 dereferenceable(256) @_ZN4pbrt31ACES2065_1ToSpectrumTable_ScaleE, ptr noundef nonnull align 8 dereferenceable(8) %6)
  store ptr %11, ptr @_ZN4pbrt18RGBToSpectrumTable10ACES2065_1E, align 8, !tbaa !21
  call void @llvm.lifetime.end.p0(i64 8, ptr %6) #9
  ret void
}