; Function Attrs: mustprogress uwtable
define dso_local void @_ZN4pbrt18RGBToSpectrumTable4InitEN4pstd3pmr21polymorphic_allocatorISt4byteEE(ptr %0) local_unnamed_addr #0 align 2 {
  %2 = load ptr, ptr %0, align 8, !tbaa !32
  %3 = getelementptr inbounds nuw i8, ptr %2, i64 16
  %4 = load ptr, ptr %3, align 8
  %5 = tail call noundef ptr %4(ptr noundef nonnull align 8 dereferenceable(8) %0, i64 noundef 16, i64 noundef 8)
  store ptr @_ZN4pbrt25sRGBToSpectrumTable_ScaleE, ptr %5, align 8, !tbaa !23
  %6 = getelementptr inbounds nuw i8, ptr %5, i64 8
  store ptr @_ZN4pbrt24sRGBToSpectrumTable_DataE, ptr %6, align 8, !tbaa !30
  store ptr %5, ptr @_ZN4pbrt18RGBToSpectrumTable4sRGBE, align 8, !tbaa !34
  %7 = load ptr, ptr %0, align 8, !tbaa !32
  %8 = getelementptr inbounds nuw i8, ptr %7, i64 16
  %9 = load ptr, ptr %8, align 8
  %10 = tail call noundef ptr %9(ptr noundef nonnull align 8 dereferenceable(8) %0, i64 noundef 16, i64 noundef 8)
  store ptr @_ZN4pbrt27DCI_P3ToSpectrumTable_ScaleE, ptr %10, align 8, !tbaa !23
  %11 = getelementptr inbounds nuw i8, ptr %10, i64 8
  store ptr @_ZN4pbrt26DCI_P3ToSpectrumTable_DataE, ptr %11, align 8, !tbaa !30
  store ptr %10, ptr @_ZN4pbrt18RGBToSpectrumTable6DCI_P3E, align 8, !tbaa !34
  %12 = load ptr, ptr %0, align 8, !tbaa !32
  %13 = getelementptr inbounds nuw i8, ptr %12, i64 16
  %14 = load ptr, ptr %13, align 8
  %15 = tail call noundef ptr %14(ptr noundef nonnull align 8 dereferenceable(8) %0, i64 noundef 16, i64 noundef 8)
  store ptr @_ZN4pbrt28REC2020ToSpectrumTable_ScaleE, ptr %15, align 8, !tbaa !23
  %16 = getelementptr inbounds nuw i8, ptr %15, i64 8
  store ptr @_ZN4pbrt27REC2020ToSpectrumTable_DataE, ptr %16, align 8, !tbaa !30
  store ptr %15, ptr @_ZN4pbrt18RGBToSpectrumTable7Rec2020E, align 8, !tbaa !34
  %17 = load ptr, ptr %0, align 8, !tbaa !32
  %18 = getelementptr inbounds nuw i8, ptr %17, i64 16
  %19 = load ptr, ptr %18, align 8
  %20 = tail call noundef ptr %19(ptr noundef nonnull align 8 dereferenceable(8) %0, i64 noundef 16, i64 noundef 8)
  store ptr @_ZN4pbrt31ACES2065_1ToSpectrumTable_ScaleE, ptr %20, align 8, !tbaa !23
  %21 = getelementptr inbounds nuw i8, ptr %20, i64 8
  store ptr @_ZN4pbrt30ACES2065_1ToSpectrumTable_DataE, ptr %21, align 8, !tbaa !30
  store ptr %20, ptr @_ZN4pbrt18RGBToSpectrumTable10ACES2065_1E, align 8, !tbaa !34
  ret void
}